target datalayout = "e-m:e-p270:32:32-p271:32:32-p272:64:64-i64:64-i128:128-f80:128-n8:16:32:64-S128"
target triple = "x86_64-unknown-linux-gnu"

%struct.llama_kv_cache = type { i8, i32, i32, i32, i32, %"class.std::vector.97", %"class.std::vector.102", %"class.std::vector.102", ptr, %struct.llama_buffer }
%"class.std::vector.97" = type { %"struct.std::_Vector_base.98" }
%"struct.std::_Vector_base.98" = type { %"struct.std::_Vector_base<llama_kv_cell, std::allocator<llama_kv_cell>>::_Vector_impl" }
%"struct.std::_Vector_base<llama_kv_cell, std::allocator<llama_kv_cell>>::_Vector_impl" = type { %"struct.std::_Vector_base<llama_kv_cell, std::allocator<llama_kv_cell>>::_Vector_impl_data" }
%"struct.std::_Vector_base<llama_kv_cell, std::allocator<llama_kv_cell>>::_Vector_impl_data" = type { ptr, ptr, ptr }
%"class.std::vector.102" = type { %"struct.std::_Vector_base.103" }
%"struct.std::_Vector_base.103" = type { %"struct.std::_Vector_base<ggml_tensor *, std::allocator<ggml_tensor *>>::_Vector_impl" }
%"struct.std::_Vector_base<ggml_tensor *, std::allocator<ggml_tensor *>>::_Vector_impl" = type { %"struct.std::_Vector_base<ggml_tensor *, std::allocator<ggml_tensor *>>::_Vector_impl_data" }
%"struct.std::_Vector_base<ggml_tensor *, std::allocator<ggml_tensor *>>::_Vector_impl_data" = type { ptr, ptr, ptr }
%struct.llama_buffer = type <{ ptr, i64, i8, [7 x i8] }>
%struct.llama_hparams = type { i8, i32, i32, i32, i32, i32, i32, i32, i32, i32, i32, float, float, float, float, i32, i8, float, float }
%"class.std::function" = type { %"class.std::_Function_base", ptr }
%"class.std::_Function_base" = type { %"union.std::_Any_data", ptr }
%"union.std::_Any_data" = type { %"union.std::_Nocopy_types" }
%"union.std::_Nocopy_types" = type { { i64, i64 } }
%struct.ggml_tensor = type { i32, i32, ptr, [4 x i64], [4 x i64], i32, [16 x i32], i8, ptr, [10 x ptr], i32, i64, i64, ptr, i64, ptr, [64 x i8], ptr, [8 x i8] }

@.str.407 = private unnamed_addr constant [8 x i8] c"v_cur_t\00", align 1
@.str.408 = private unnamed_addr constant [13 x i8] c"k_cache_view\00", align 1
@.str.409 = private unnamed_addr constant [13 x i8] c"v_cache_view\00", align 1

; Function Attrs: mustprogress nounwind uwtable
define linkonce_odr noundef zeroext i1 @_ZNKSt14_Function_base8_M_emptyEv(ptr noundef nonnull align 8 dereferenceable(24) %this) #1 comdat align 2 {
entry:
  %this.addr = alloca ptr, align 8
  store ptr %this, ptr %this.addr, align 8
  %this1 = load ptr, ptr %this.addr, align 8
  %_M_manager = getelementptr inbounds %"class.std::_Function_base", ptr %this1, i32 0, i32 1
  %0 = load ptr, ptr %_M_manager, align 8
  %tobool = icmp ne ptr %0, null
  %lnot = xor i1 %tobool, true
  ret i1 %lnot
}

; Function Attrs: mustprogress nounwind uwtable
define linkonce_odr noundef i32 @_ZNK13llama_hparams5n_gqaEv(ptr noundef nonnull align 4 dereferenceable(76) %this) #1 comdat align 2 {
entry:
  %this.addr = alloca ptr, align 8
  store ptr %this, ptr %this.addr, align 8
  %this1 = load ptr, ptr %this.addr, align 8
  %n_head = getelementptr inbounds %struct.llama_hparams, ptr %this1, i32 0, i32 4
  %0 = load i32, ptr %n_head, align 4
  %n_head_kv = getelementptr inbounds %struct.llama_hparams, ptr %this1, i32 0, i32 5
  %1 = load i32, ptr %n_head_kv, align 4
  %div = udiv i32 %0, %1
  ret i32 %div
}

; Function Attrs: mustprogress nounwind uwtable
define linkonce_odr noundef nonnull align 8 dereferenceable(8) ptr @_ZNKSt6vectorIP11ggml_tensorSaIS1_EEixEm(ptr noundef nonnull align 8 dereferenceable(24) %this, i64 noundef %__n) #1 comdat align 2 {
entry:
  %this.addr = alloca ptr, align 8
  %__n.addr = alloca i64, align 8
  store ptr %this, ptr %this.addr, align 8
  store i64 %__n, ptr %__n.addr, align 8
  %this1 = load ptr, ptr %this.addr, align 8
  %_M_impl = getelementptr inbounds %"struct.std::_Vector_base.103", ptr %this1, i32 0, i32 0
  %_M_start = getelementptr inbounds %"struct.std::_Vector_base<ggml_tensor *, std::allocator<ggml_tensor *>>::_Vector_impl_data", ptr %_M_impl, i32 0, i32 0
  %0 = load ptr, ptr %_M_start, align 8
  %1 = load i64, ptr %__n.addr, align 8
  %add.ptr = getelementptr inbounds ptr, ptr %0, i64 %1
  ret ptr %add.ptr
}

; Function Attrs: mustprogress uwtable
define linkonce_odr void @_ZNKSt8functionIFvP11ggml_tensorPKciEEclES1_S3_i(ptr noundef nonnull align 8 dereferenceable(32) %this, ptr noundef %__args, ptr noundef %__args1, i32 noundef %__args3) #2 comdat align 2 {
entry:
  %this.addr = alloca ptr, align 8
  %__args.addr = alloca ptr, align 8
  %__args.addr2 = alloca ptr, align 8
  %__args.addr4 = alloca i32, align 4
  store ptr %this, ptr %this.addr, align 8
  store ptr %__args, ptr %__args.addr, align 8
  store ptr %__args1, ptr %__args.addr2, align 8
  store i32 %__args3, ptr %__args.addr4, align 4
  %this5 = load ptr, ptr %this.addr, align 8
  %call = call noundef zeroext i1 @_ZNKSt14_Function_base8_M_emptyEv(ptr noundef nonnull align 8 dereferenceable(24) %this5)
  br i1 %call, label %if.then, label %if.end

if.then:                                          ; preds = %entry
  call void @_ZSt25__throw_bad_function_callv() #26
  unreachable

if.end:                                           ; preds = %entry
  %_M_invoker = getelementptr inbounds %"class.std::function", ptr %this5, i32 0, i32 1
  %0 = load ptr, ptr %_M_invoker, align 8
  %_M_functor = getelementptr inbounds %"class.std::_Function_base", ptr %this5, i32 0, i32 0
  call void %0(ptr noundef nonnull align 8 dereferenceable(16) %_M_functor, ptr noundef nonnull align 8 dereferenceable(8) %__args.addr, ptr noundef nonnull align 8 dereferenceable(8) %__args.addr2, ptr noundef nonnull align 4 dereferenceable(4) %__args.addr4)
  ret void
}

; Function Attrs: mustprogress nounwind uwtable
define linkonce_odr noundef i32 @_ZNK13llama_hparams10n_embd_gqaEv(ptr noundef nonnull align 4 dereferenceable(76) %this) #1 comdat align 2 {
entry:
  %this.addr = alloca ptr, align 8
  store ptr %this, ptr %this.addr, align 8
  %this1 = load ptr, ptr %this.addr, align 8
  %n_embd = getelementptr inbounds %struct.llama_hparams, ptr %this1, i32 0, i32 3
  %0 = load i32, ptr %n_embd, align 4
  %call = call noundef i32 @_ZNK13llama_hparams5n_gqaEv(ptr noundef nonnull align 4 dereferenceable(76) %this1)
  %div = udiv i32 %0, %call
  ret i32 %div
}

; Function Attrs: mustprogress uwtable
define internal void @_ZL18llm_build_kv_storeP12ggml_contextRK13llama_hparamsRK14llama_kv_cacheP11ggml_cgraphP11ggml_tensorSA_liiRKSt8functionIFvSA_PKciEEl(ptr noundef %ctx, ptr noundef nonnull align 4 dereferenceable(76) %hparams, ptr noundef nonnull align 8 dereferenceable(128) %kv, ptr noundef %graph, ptr noundef %k_cur, ptr noundef %v_cur, i64 noundef %n_ctx, i32 noundef %n_tokens, i32 noundef %kv_head, ptr noundef nonnull align 8 dereferenceable(32) %cb, i64 noundef %il) #2 {
entry:
  %ctx.addr = alloca ptr, align 8
  %hparams.addr = alloca ptr, align 8
  %kv.addr = alloca ptr, align 8
  %graph.addr = alloca ptr, align 8
  %k_cur.addr = alloca ptr, align 8
  %v_cur.addr = alloca ptr, align 8
  %n_ctx.addr = alloca i64, align 8
  %n_tokens.addr = alloca i32, align 4
  %kv_head.addr = alloca i32, align 4
  %cb.addr = alloca ptr, align 8
  %il.addr = alloca i64, align 8
  %n_embd_gqa = alloca i64, align 8
  %v_cur_t = alloca ptr, align 8
  %k_cache_view = alloca ptr, align 8
  %v_cache_view = alloca ptr, align 8
  store ptr %ctx, ptr %ctx.addr, align 8
  store ptr %hparams, ptr %hparams.addr, align 8
  store ptr %kv, ptr %kv.addr, align 8
  store ptr %graph, ptr %graph.addr, align 8
  store ptr %k_cur, ptr %k_cur.addr, align 8
  store ptr %v_cur, ptr %v_cur.addr, align 8
  store i64 %n_ctx, ptr %n_ctx.addr, align 8
  store i32 %n_tokens, ptr %n_tokens.addr, align 4
  store i32 %kv_head, ptr %kv_head.addr, align 4
  store ptr %cb, ptr %cb.addr, align 8
  store i64 %il, ptr %il.addr, align 8
  %0 = load ptr, ptr %hparams.addr, align 8
  %call = call noundef i32 @_ZNK13llama_hparams10n_embd_gqaEv(ptr noundef nonnull align 4 dereferenceable(76) %0)
  %conv = zext i32 %call to i64
  store i64 %conv, ptr %n_embd_gqa, align 8
  %1 = load ptr, ptr %ctx.addr, align 8
  %2 = load ptr, ptr %ctx.addr, align 8
  %3 = load ptr, ptr %v_cur.addr, align 8
  %4 = load i64, ptr %n_embd_gqa, align 8
  %5 = load i32, ptr %n_tokens.addr, align 4
  %conv1 = sext i32 %5 to i64
  %call2 = call ptr @ggml_reshape_2d(ptr noundef %2, ptr noundef %3, i64 noundef %4, i64 noundef %conv1)
  %call3 = call ptr @ggml_transpose(ptr noundef %1, ptr noundef %call2)
  store ptr %call3, ptr %v_cur_t, align 8
  %6 = load ptr, ptr %cb.addr, align 8
  %7 = load ptr, ptr %v_cur_t, align 8
  %8 = load i64, ptr %il.addr, align 8
  %conv4 = trunc i64 %8 to i32
  call void @_ZNKSt8functionIFvP11ggml_tensorPKciEEclES1_S3_i(ptr noundef nonnull align 8 dereferenceable(32) %6, ptr noundef %7, ptr noundef @.str.407, i32 noundef %conv4)
  %9 = load ptr, ptr %ctx.addr, align 8
  %10 = load ptr, ptr %kv.addr, align 8
  %k_l = getelementptr inbounds %struct.llama_kv_cache, ptr %10, i32 0, i32 6
  %11 = load i64, ptr %il.addr, align 8
  %call5 = call noundef nonnull align 8 dereferenceable(8) ptr @_ZNKSt6vectorIP11ggml_tensorSaIS1_EEixEm(ptr noundef nonnull align 8 dereferenceable(24) %k_l, i64 noundef %11) #3
  %12 = load ptr, ptr %call5, align 8
  %13 = load i32, ptr %n_tokens.addr, align 4
  %conv6 = sext i32 %13 to i64
  %14 = load i64, ptr %n_embd_gqa, align 8
  %mul = mul nsw i64 %conv6, %14
  %15 = load ptr, ptr %kv.addr, align 8
  %k_l7 = getelementptr inbounds %struct.llama_kv_cache, ptr %15, i32 0, i32 6
  %16 = load i64, ptr %il.addr, align 8
  %call8 = call noundef nonnull align 8 dereferenceable(8) ptr @_ZNKSt6vectorIP11ggml_tensorSaIS1_EEixEm(ptr noundef nonnull align 8 dereferenceable(24) %k_l7, i64 noundef %16) #3
  %17 = load ptr, ptr %call8, align 8
  %type = getelementptr inbounds %struct.ggml_tensor, ptr %17, i32 0, i32 0
  %18 = load i32, ptr %type, align 8
  %19 = load i64, ptr %n_embd_gqa, align 8
  %call9 = call i64 @ggml_row_size(i32 noundef %18, i64 noundef %19)
  %20 = load i32, ptr %kv_head.addr, align 4
  %conv10 = sext i32 %20 to i64
  %mul11 = mul i64 %call9, %conv10
  %call12 = call ptr @ggml_view_1d(ptr noundef %9, ptr noundef %12, i64 noundef %mul, i64 noundef %mul11)
  store ptr %call12, ptr %k_cache_view, align 8
  %21 = load ptr, ptr %cb.addr, align 8
  %22 = load ptr, ptr %k_cache_view, align 8
  %23 = load i64, ptr %il.addr, align 8
  %conv13 = trunc i64 %23 to i32
  call void @_ZNKSt8functionIFvP11ggml_tensorPKciEEclES1_S3_i(ptr noundef nonnull align 8 dereferenceable(32) %21, ptr noundef %22, ptr noundef @.str.408, i32 noundef %conv13)
  %24 = load ptr, ptr %ctx.addr, align 8
  %25 = load ptr, ptr %kv.addr, align 8
  %v_l = getelementptr inbounds %struct.llama_kv_cache, ptr %25, i32 0, i32 7
  %26 = load i64, ptr %il.addr, align 8
  %call14 = call noundef nonnull align 8 dereferenceable(8) ptr @_ZNKSt6vectorIP11ggml_tensorSaIS1_EEixEm(ptr noundef nonnull align 8 dereferenceable(24) %v_l, i64 noundef %26) #3
  %27 = load ptr, ptr %call14, align 8
  %28 = load i32, ptr %n_tokens.addr, align 4
  %conv15 = sext i32 %28 to i64
  %29 = load i64, ptr %n_embd_gqa, align 8
  %30 = load i64, ptr %n_ctx.addr, align 8
  %31 = load ptr, ptr %kv.addr, align 8
  %v_l16 = getelementptr inbounds %struct.llama_kv_cache, ptr %31, i32 0, i32 7
  %32 = load i64, ptr %il.addr, align 8
  %call17 = call noundef nonnull align 8 dereferenceable(8) ptr @_ZNKSt6vectorIP11ggml_tensorSaIS1_EEixEm(ptr noundef nonnull align 8 dereferenceable(24) %v_l16, i64 noundef %32) #3
  %33 = load ptr, ptr %call17, align 8
  %call18 = call i64 @ggml_element_size(ptr noundef %33)
  %mul19 = mul i64 %30, %call18
  %34 = load i32, ptr %kv_head.addr, align 4
  %conv20 = sext i32 %34 to i64
  %35 = load ptr, ptr %kv.addr, align 8
  %v_l21 = getelementptr inbounds %struct.llama_kv_cache, ptr %35, i32 0, i32 7
  %36 = load i64, ptr %il.addr, align 8
  %call22 = call noundef nonnull align 8 dereferenceable(8) ptr @_ZNKSt6vectorIP11ggml_tensorSaIS1_EEixEm(ptr noundef nonnull align 8 dereferenceable(24) %v_l21, i64 noundef %36) #3
  %37 = load ptr, ptr %call22, align 8
  %call23 = call i64 @ggml_element_size(ptr noundef %37)
  %mul24 = mul i64 %conv20, %call23
  %call25 = call ptr @ggml_view_2d(ptr noundef %24, ptr noundef %27, i64 noundef %conv15, i64 noundef %29, i64 noundef %mul19, i64 noundef %mul24)
  store ptr %call25, ptr %v_cache_view, align 8
  %38 = load ptr, ptr %cb.addr, align 8
  %39 = load ptr, ptr %v_cache_view, align 8
  %40 = load i64, ptr %il.addr, align 8
  %conv26 = trunc i64 %40 to i32
  call void @_ZNKSt8functionIFvP11ggml_tensorPKciEEclES1_S3_i(ptr noundef nonnull align 8 dereferenceable(32) %38, ptr noundef %39, ptr noundef @.str.409, i32 noundef %conv26)
  %41 = load ptr, ptr %graph.addr, align 8
  %42 = load ptr, ptr %ctx.addr, align 8
  %43 = load ptr, ptr %k_cur.addr, align 8
  %44 = load ptr, ptr %k_cache_view, align 8
  %call27 = call ptr @ggml_cpy(ptr noundef %42, ptr noundef %43, ptr noundef %44)
  call void @ggml_build_forward_expand(ptr noundef %41, ptr noundef %call27)
  %45 = load ptr, ptr %graph.addr, align 8
  %46 = load ptr, ptr %ctx.addr, align 8
  %47 = load ptr, ptr %v_cur_t, align 8
  %48 = load ptr, ptr %v_cache_view, align 8
  %call28 = call ptr @ggml_cpy(ptr noundef %46, ptr noundef %47, ptr noundef %48)
  call void @ggml_build_forward_expand(ptr noundef %45, ptr noundef %call28)
  ret void
}