; Function Attrs: mustprogress uwtable
define internal fastcc void @_ZL18llm_build_kv_storeP12ggml_contextRK13llama_hparamsRK14llama_kv_cacheP11ggml_cgraphP11ggml_tensorSA_liiRKSt8functionIFvSA_PKciEEl(ptr noundef %ctx, ptr nocapture noundef nonnull readonly align 4 dereferenceable(76) %hparams, ptr nocapture noundef nonnull readonly align 8 dereferenceable(128) %kv, ptr noundef %graph, ptr noundef %k_cur, ptr noundef %v_cur, i64 noundef %n_ctx, i32 noundef %n_tokens, i32 noundef %kv_head, ptr noundef nonnull align 8 dereferenceable(32) %cb, i64 noundef %il) unnamed_addr #2 {
entry:
  %__args.addr.i41 = alloca ptr, align 8
  %__args.addr2.i42 = alloca ptr, align 8
  %__args.addr4.i43 = alloca i32, align 4
  %__args.addr.i30 = alloca ptr, align 8
  %__args.addr2.i31 = alloca ptr, align 8
  %__args.addr4.i32 = alloca i32, align 4
  %__args.addr.i = alloca ptr, align 8
  %__args.addr2.i = alloca ptr, align 8
  %__args.addr4.i = alloca i32, align 4
  %n_embd.i = getelementptr inbounds i8, ptr %hparams, i64 12
  %0 = load i32, ptr %n_embd.i, align 4
  %n_head.i.i = getelementptr inbounds i8, ptr %hparams, i64 16
  %1 = load i32, ptr %n_head.i.i, align 4
  %n_head_kv.i.i = getelementptr inbounds i8, ptr %hparams, i64 20
  %2 = load i32, ptr %n_head_kv.i.i, align 4
  %div.i.i = udiv i32 %1, %2
  %div.i = udiv i32 %0, %div.i.i
  %conv = zext i32 %div.i to i64
  %conv1 = sext i32 %n_tokens to i64
  %call2 = tail call ptr @ggml_reshape_2d(ptr noundef %ctx, ptr noundef %v_cur, i64 noundef %conv, i64 noundef %conv1)
  %call3 = tail call ptr @ggml_transpose(ptr noundef %ctx, ptr noundef %call2)
  %conv4 = trunc i64 %il to i32
  call void @llvm.lifetime.start.p0(i64 8, ptr nonnull %__args.addr.i)
  call void @llvm.lifetime.start.p0(i64 8, ptr nonnull %__args.addr2.i)
  call void @llvm.lifetime.start.p0(i64 4, ptr nonnull %__args.addr4.i)
  store ptr %call3, ptr %__args.addr.i, align 8
  store ptr @.str.407, ptr %__args.addr2.i, align 8
  store i32 %conv4, ptr %__args.addr4.i, align 4
  %_M_manager.i.i = getelementptr inbounds i8, ptr %cb, i64 16
  %3 = load ptr, ptr %_M_manager.i.i, align 8
  %tobool.not.i.i = icmp eq ptr %3, null
  br i1 %tobool.not.i.i, label %if.then.i, label %_ZNKSt8functionIFvP11ggml_tensorPKciEEclES1_S3_i.exit

if.then.i:                                        ; preds = %entry
  tail call void @_ZSt25__throw_bad_function_callv() #47
  unreachable

_ZNKSt8functionIFvP11ggml_tensorPKciEEclES1_S3_i.exit: ; preds = %entry
  %_M_invoker.i = getelementptr inbounds i8, ptr %cb, i64 24
  %4 = load ptr, ptr %_M_invoker.i, align 8
  call void %4(ptr noundef nonnull align 8 dereferenceable(16) %cb, ptr noundef nonnull align 8 dereferenceable(8) %__args.addr.i, ptr noundef nonnull align 8 dereferenceable(8) %__args.addr2.i, ptr noundef nonnull align 4 dereferenceable(4) %__args.addr4.i)
  call void @llvm.lifetime.end.p0(i64 8, ptr nonnull %__args.addr.i)
  call void @llvm.lifetime.end.p0(i64 8, ptr nonnull %__args.addr2.i)
  call void @llvm.lifetime.end.p0(i64 4, ptr nonnull %__args.addr4.i)
  %k_l = getelementptr inbounds i8, ptr %kv, i64 48
  %5 = load ptr, ptr %k_l, align 8
  %add.ptr.i = getelementptr inbounds ptr, ptr %5, i64 %il
  %6 = load ptr, ptr %add.ptr.i, align 8
  %mul = mul nsw i64 %conv, %conv1
  %7 = load i32, ptr %6, align 8
  %call9 = call i64 @ggml_row_size(i32 noundef %7, i64 noundef %conv)
  %conv10 = sext i32 %kv_head to i64
  %mul11 = mul i64 %call9, %conv10
  %call12 = call ptr @ggml_view_1d(ptr noundef %ctx, ptr noundef nonnull %6, i64 noundef %mul, i64 noundef %mul11)
  call void @llvm.lifetime.start.p0(i64 8, ptr nonnull %__args.addr.i30)
  call void @llvm.lifetime.start.p0(i64 8, ptr nonnull %__args.addr2.i31)
  call void @llvm.lifetime.start.p0(i64 4, ptr nonnull %__args.addr4.i32)
  store ptr %call12, ptr %__args.addr.i30, align 8
  store ptr @.str.408, ptr %__args.addr2.i31, align 8
  store i32 %conv4, ptr %__args.addr4.i32, align 4
  %8 = load ptr, ptr %_M_manager.i.i, align 8
  %tobool.not.i.i34 = icmp eq ptr %8, null
  br i1 %tobool.not.i.i34, label %if.then.i36, label %_ZNKSt8functionIFvP11ggml_tensorPKciEEclES1_S3_i.exit37

if.then.i36:                                      ; preds = %_ZNKSt8functionIFvP11ggml_tensorPKciEEclES1_S3_i.exit
  call void @_ZSt25__throw_bad_function_callv() #47
  unreachable

_ZNKSt8functionIFvP11ggml_tensorPKciEEclES1_S3_i.exit37: ; preds = %_ZNKSt8functionIFvP11ggml_tensorPKciEEclES1_S3_i.exit
  %9 = load ptr, ptr %_M_invoker.i, align 8
  call void %9(ptr noundef nonnull align 8 dereferenceable(16) %cb, ptr noundef nonnull align 8 dereferenceable(8) %__args.addr.i30, ptr noundef nonnull align 8 dereferenceable(8) %__args.addr2.i31, ptr noundef nonnull align 4 dereferenceable(4) %__args.addr4.i32)
  call void @llvm.lifetime.end.p0(i64 8, ptr nonnull %__args.addr.i30)
  call void @llvm.lifetime.end.p0(i64 8, ptr nonnull %__args.addr2.i31)
  call void @llvm.lifetime.end.p0(i64 4, ptr nonnull %__args.addr4.i32)
  %v_l = getelementptr inbounds i8, ptr %kv, i64 72
  %10 = load ptr, ptr %v_l, align 8
  %add.ptr.i38 = getelementptr inbounds ptr, ptr %10, i64 %il
  %11 = load ptr, ptr %add.ptr.i38, align 8
  %call18 = call i64 @ggml_element_size(ptr noundef %11)
  %mul19 = mul i64 %call18, %n_ctx
  %12 = load ptr, ptr %v_l, align 8
  %add.ptr.i40 = getelementptr inbounds ptr, ptr %12, i64 %il
  %13 = load ptr, ptr %add.ptr.i40, align 8
  %call23 = call i64 @ggml_element_size(ptr noundef %13)
  %mul24 = mul i64 %call23, %conv10
  %call25 = call ptr @ggml_view_2d(ptr noundef %ctx, ptr noundef %11, i64 noundef %conv1, i64 noundef %conv, i64 noundef %mul19, i64 noundef %mul24)
  call void @llvm.lifetime.start.p0(i64 8, ptr nonnull %__args.addr.i41)
  call void @llvm.lifetime.start.p0(i64 8, ptr nonnull %__args.addr2.i42)
  call void @llvm.lifetime.start.p0(i64 4, ptr nonnull %__args.addr4.i43)
  store ptr %call25, ptr %__args.addr.i41, align 8
  store ptr @.str.409, ptr %__args.addr2.i42, align 8
  store i32 %conv4, ptr %__args.addr4.i43, align 4
  %14 = load ptr, ptr %_M_manager.i.i, align 8
  %tobool.not.i.i45 = icmp eq ptr %14, null
  br i1 %tobool.not.i.i45, label %if.then.i47, label %_ZNKSt8functionIFvP11ggml_tensorPKciEEclES1_S3_i.exit48

if.then.i47:                                      ; preds = %_ZNKSt8functionIFvP11ggml_tensorPKciEEclES1_S3_i.exit37
  call void @_ZSt25__throw_bad_function_callv() #47
  unreachable

_ZNKSt8functionIFvP11ggml_tensorPKciEEclES1_S3_i.exit48: ; preds = %_ZNKSt8functionIFvP11ggml_tensorPKciEEclES1_S3_i.exit37
  %15 = load ptr, ptr %_M_invoker.i, align 8
  call void %15(ptr noundef nonnull align 8 dereferenceable(16) %cb, ptr noundef nonnull align 8 dereferenceable(8) %__args.addr.i41, ptr noundef nonnull align 8 dereferenceable(8) %__args.addr2.i42, ptr noundef nonnull align 4 dereferenceable(4) %__args.addr4.i43)
  call void @llvm.lifetime.end.p0(i64 8, ptr nonnull %__args.addr.i41)
  call void @llvm.lifetime.end.p0(i64 8, ptr nonnull %__args.addr2.i42)
  call void @llvm.lifetime.end.p0(i64 4, ptr nonnull %__args.addr4.i43)
  %call27 = call ptr @ggml_cpy(ptr noundef %ctx, ptr noundef %k_cur, ptr noundef %call12)
  call void @ggml_build_forward_expand(ptr noundef %graph, ptr noundef %call27)
  %call28 = call ptr @ggml_cpy(ptr noundef %ctx, ptr noundef %call3, ptr noundef %call25)
  call void @ggml_build_forward_expand(ptr noundef %graph, ptr noundef %call28)
  ret void
}